; Function Attrs: nounwind uwtable
define i32 @Java_sun_nio_ch_sctp_SctpNet_getIntOption0(ptr noundef %0, ptr nocapture noundef readnone %1, i32 noundef %2, i32 noundef %3) local_unnamed_addr #1 {
  %5 = alloca i32, align 4
  %6 = alloca %struct.linger, align 8
  %7 = alloca i32, align 4
  store i64 0, ptr %6, align 8
  br label %9

8:                                                ; preds = %9
  %indvars.iv.next.i = add nuw nsw i64 %indvars.iv.i, 1
  %exitcond.not.i = icmp eq i64 %indvars.iv.next.i, 7
  br i1 %exitcond.not.i, label %13, label %9, !llvm.loop !10

9:                                                ; preds = %8, %4
  %indvars.iv.i = phi i64 [ 0, %4 ], [ %indvars.iv.next.i, %8 ]
  %10 = getelementptr inbounds [7 x %struct.anon], ptr @mapSocketOption.opts, i64 0, i64 %indvars.iv.i
  %11 = load i32, ptr %10, align 4
  %12 = icmp eq i32 %11, %3
  br i1 %12, label %14, label %8

13:                                               ; preds = %8
  tail call void @JNU_ThrowByNameWithLastError(ptr noundef %0, ptr noundef nonnull @.str.4, ptr noundef nonnull @.str.17) #10
  br label %31

14:                                               ; preds = %9
  %15 = getelementptr inbounds i8, ptr %10, i64 4
  %16 = load i32, ptr %15, align 4
  %17 = getelementptr inbounds i8, ptr %10, i64 8
  %18 = load i32, ptr %17, align 4
  %19 = icmp eq i32 %3, 7
  %. = select i1 %19, i32 8, i32 4
  %.8 = select i1 %19, ptr %6, ptr %5
  store i32 %., ptr %7, align 4
  %20 = call i32 @NET_GetSockOpt(i32 noundef %2, i32 noundef %16, i32 noundef %18, ptr noundef nonnull %.8, ptr noundef nonnull %7) #10
  %21 = icmp slt i32 %20, 0
  br i1 %21, label %22, label %23

22:                                               ; preds = %14
  call void @JNU_ThrowByNameWithLastError(ptr noundef %0, ptr noundef nonnull @.str.4, ptr noundef nonnull @.str.19) #10
  br label %31

23:                                               ; preds = %14
  br i1 %19, label %24, label %29

24:                                               ; preds = %23
  %25 = load i32, ptr %6, align 8
  %.not = icmp eq i32 %25, 0
  %26 = getelementptr inbounds i8, ptr %6, i64 4
  %27 = load i32, ptr %26, align 4
  %28 = select i1 %.not, i32 -1, i32 %27
  br label %31

29:                                               ; preds = %23
  %30 = load i32, ptr %5, align 4
  br label %31

31:                                               ; preds = %29, %24, %22, %13
  %.07 = phi i32 [ -1, %13 ], [ -1, %22 ], [ %28, %24 ], [ %30, %29 ]
  ret i32 %.07
}